; ModuleID = '30/149.c'
source_filename = "30/149.c"
target datalayout = "e-m:e-p270:32:32-p271:32:32-p272:64:64-i64:64-f80:128-n8:16:32:64-S128"
target triple = "x86_64-pc-linux-gnu"

@.str = private unnamed_addr constant [3 x i8] c"%d\00", align 1

; Function Attrs: noinline nounwind uwtable
define dso_local i32 @main() #0 {
  %1 = alloca i32, align 4
  %2 = alloca i32, align 4
  %3 = alloca i32, align 4
  %4 = alloca i32, align 4
  store i32 0, i32* %1, align 4
  store i32 0, i32* %4, align 4
  %5 = call i32 (i8*, ...) @__isoc99_scanf(i8* getelementptr inbounds ([3 x i8], [3 x i8]* @.str, i64 0, i64 0), i32* %2)
  store i32 1, i32* %3, align 4
  br label %6

6:                                                ; preds = %18, %0
  %7 = load i32, i32* %3, align 4
  %8 = load i32, i32* %2, align 4
  %9 = icmp sle i32 %7, %8
  br i1 %9, label %10, label %21

10:                                               ; preds = %6
  %11 = load i32, i32* %3, align 4
  %12 = call i32 @ref(i32 %11)
  %13 = load i32, i32* %3, align 4
  %14 = call i32 @ref(i32 %13)
  %15 = mul nsw i32 %12, %14
  %16 = load i32, i32* %4, align 4
  %17 = add nsw i32 %16, %15
  store i32 %17, i32* %4, align 4
  br label %18

18:                                               ; preds = %10
  %19 = load i32, i32* %3, align 4
  %20 = add nsw i32 %19, 1
  store i32 %20, i32* %3, align 4
  br label %6

21:                                               ; preds = %6
  %22 = load i32, i32* %4, align 4
  %23 = call i32 (i8*, ...) @printf(i8* getelementptr inbounds ([3 x i8], [3 x i8]* @.str, i64 0, i64 0), i32 %22)
  ret i32 0
}

declare dso_local i32 @__isoc99_scanf(i8*, ...) #1

; Function Attrs: noinline nounwind uwtable
define dso_local i32 @ref(i32 %0) #0 {
  %2 = alloca i32, align 4
  %3 = alloca i32, align 4
  store i32 %0, i32* %3, align 4
  %4 = load i32, i32* %3, align 4
  %5 = srem i32 %4, 10
  %6 = icmp eq i32 %5, 7
  br i1 %6, label %15, label %7

7:                                                ; preds = %1
  %8 = load i32, i32* %3, align 4
  %9 = sdiv i32 %8, 10
  %10 = icmp eq i32 %9, 7
  br i1 %10, label %15, label %11

11:                                               ; preds = %7
  %12 = load i32, i32* %3, align 4
  %13 = srem i32 %12, 7
  %14 = icmp eq i32 %13, 0
  br i1 %14, label %15, label %16

15:                                               ; preds = %11, %7, %1
  store i32 0, i32* %2, align 4
  br label %18

16:                                               ; preds = %11
  %17 = load i32, i32* %3, align 4
  store i32 %17, i32* %2, align 4
  br label %18

18:                                               ; preds = %16, %15
  %19 = load i32, i32* %2, align 4
  ret i32 %19
}

declare dso_local i32 @printf(i8*, ...) #1


!llvm.module.flags = !{!0}
!llvm.ident = !{!1}

!0 = !{i32 1, !"wchar_size", i32 4}
!1 = !{!"clang version 10.0.0-4ubuntu1 "}
